; ModuleID = '39/1468.c'
source_filename = "39/1468.c"
target datalayout = "e-m:e-p270:32:32-p271:32:32-p272:64:64-i64:64-f80:128-n8:16:32:64-S128"
target triple = "x86_64-pc-linux-gnu"

%struct.student = type { [20 x i8], i32, i32, i8, i8, i32, i32, %struct.student* }

@sum = dso_local global i32 0, align 4
@.str = private unnamed_addr constant [3 x i8] c"%d\00", align 1
@N = common dso_local global i32 0, align 4
@.str.1 = private unnamed_addr constant [18 x i8] c"%s %d %d %c %c %d\00", align 1
@.str.2 = private unnamed_addr constant [10 x i8] c"%s\0A%d\0A%d\0A\00", align 1

; Function Attrs: noinline nounwind uwtable
define dso_local void @main() #0 {
  %1 = alloca %struct.student*, align 8
  %2 = alloca %struct.student*, align 8
  %3 = alloca %struct.student*, align 8
  %4 = alloca %struct.student*, align 8
  %5 = alloca %struct.student*, align 8
  %6 = alloca i32, align 4
  %7 = alloca i32, align 4
  store i32 0, i32* %7, align 4
  %8 = call i32 (i8*, ...) @__isoc99_scanf(i8* getelementptr inbounds ([3 x i8], [3 x i8]* @.str, i64 0, i64 0), i32* @N)
  store i32 0, i32* %6, align 4
  br label %9

9:                                                ; preds = %43, %0
  %10 = load i32, i32* %6, align 4
  %11 = load i32, i32* @N, align 4
  %12 = icmp slt i32 %10, %11
  br i1 %12, label %13, label %46

13:                                               ; preds = %9
  %14 = load %struct.student*, %struct.student** %4, align 8
  store %struct.student* %14, %struct.student** %5, align 8
  %15 = call noalias i8* @malloc(i64 100) #3
  %16 = bitcast i8* %15 to %struct.student*
  store %struct.student* %16, %struct.student** %4, align 8
  %17 = load %struct.student*, %struct.student** %4, align 8
  %18 = getelementptr inbounds %struct.student, %struct.student* %17, i32 0, i32 0
  %19 = load %struct.student*, %struct.student** %4, align 8
  %20 = getelementptr inbounds %struct.student, %struct.student* %19, i32 0, i32 1
  %21 = load %struct.student*, %struct.student** %4, align 8
  %22 = getelementptr inbounds %struct.student, %struct.student* %21, i32 0, i32 2
  %23 = load %struct.student*, %struct.student** %4, align 8
  %24 = getelementptr inbounds %struct.student, %struct.student* %23, i32 0, i32 3
  %25 = load %struct.student*, %struct.student** %4, align 8
  %26 = getelementptr inbounds %struct.student, %struct.student* %25, i32 0, i32 4
  %27 = load %struct.student*, %struct.student** %4, align 8
  %28 = getelementptr inbounds %struct.student, %struct.student* %27, i32 0, i32 5
  %29 = call i32 (i8*, ...) @__isoc99_scanf(i8* getelementptr inbounds ([18 x i8], [18 x i8]* @.str.1, i64 0, i64 0), [20 x i8]* %18, i32* %20, i32* %22, i8* %24, i8* %26, i32* %28)
  %30 = load %struct.student*, %struct.student** %4, align 8
  %31 = getelementptr inbounds %struct.student, %struct.student* %30, i32 0, i32 6
  store i32 0, i32* %31, align 4
  %32 = load %struct.student*, %struct.student** %4, align 8
  %33 = getelementptr inbounds %struct.student, %struct.student* %32, i32 0, i32 7
  store %struct.student* null, %struct.student** %33, align 8
  %34 = load i32, i32* %6, align 4
  %35 = icmp eq i32 %34, 0
  br i1 %35, label %36, label %38

36:                                               ; preds = %13
  %37 = load %struct.student*, %struct.student** %4, align 8
  store %struct.student* %37, %struct.student** %1, align 8
  br label %42

38:                                               ; preds = %13
  %39 = load %struct.student*, %struct.student** %4, align 8
  %40 = load %struct.student*, %struct.student** %5, align 8
  %41 = getelementptr inbounds %struct.student, %struct.student* %40, i32 0, i32 7
  store %struct.student* %39, %struct.student** %41, align 8
  br label %42

42:                                               ; preds = %38, %36
  br label %43

43:                                               ; preds = %42
  %44 = load i32, i32* %6, align 4
  %45 = add nsw i32 %44, 1
  store i32 %45, i32* %6, align 4
  br label %9

46:                                               ; preds = %9
  store i32 0, i32* %7, align 4
  %47 = load %struct.student*, %struct.student** %1, align 8
  store %struct.student* %47, %struct.student** %2, align 8
  store %struct.student* %47, %struct.student** %3, align 8
  br label %48

48:                                               ; preds = %150, %46
  %49 = load %struct.student*, %struct.student** %3, align 8
  %50 = icmp ne %struct.student* %49, null
  br i1 %50, label %51, label %154

51:                                               ; preds = %48
  %52 = load %struct.student*, %struct.student** %3, align 8
  %53 = getelementptr inbounds %struct.student, %struct.student* %52, i32 0, i32 1
  %54 = load i32, i32* %53, align 4
  %55 = icmp sgt i32 %54, 80
  br i1 %55, label %56, label %68

56:                                               ; preds = %51
  %57 = load %struct.student*, %struct.student** %3, align 8
  %58 = getelementptr inbounds %struct.student, %struct.student* %57, i32 0, i32 5
  %59 = load i32, i32* %58, align 8
  %60 = icmp sge i32 %59, 1
  br i1 %60, label %61, label %68

61:                                               ; preds = %56
  %62 = load %struct.student*, %struct.student** %3, align 8
  %63 = getelementptr inbounds %struct.student, %struct.student* %62, i32 0, i32 6
  %64 = load i32, i32* %63, align 4
  %65 = add nsw i32 %64, 8000
  %66 = load %struct.student*, %struct.student** %3, align 8
  %67 = getelementptr inbounds %struct.student, %struct.student* %66, i32 0, i32 6
  store i32 %65, i32* %67, align 4
  br label %68

68:                                               ; preds = %61, %56, %51
  %69 = load %struct.student*, %struct.student** %3, align 8
  %70 = getelementptr inbounds %struct.student, %struct.student* %69, i32 0, i32 1
  %71 = load i32, i32* %70, align 4
  %72 = icmp sgt i32 %71, 85
  br i1 %72, label %73, label %85

73:                                               ; preds = %68
  %74 = load %struct.student*, %struct.student** %3, align 8
  %75 = getelementptr inbounds %struct.student, %struct.student* %74, i32 0, i32 2
  %76 = load i32, i32* %75, align 8
  %77 = icmp sgt i32 %76, 80
  br i1 %77, label %78, label %85

78:                                               ; preds = %73
  %79 = load %struct.student*, %struct.student** %3, align 8
  %80 = getelementptr inbounds %struct.student, %struct.student* %79, i32 0, i32 6
  %81 = load i32, i32* %80, align 4
  %82 = add nsw i32 %81, 4000
  %83 = load %struct.student*, %struct.student** %3, align 8
  %84 = getelementptr inbounds %struct.student, %struct.student* %83, i32 0, i32 6
  store i32 %82, i32* %84, align 4
  br label %85

85:                                               ; preds = %78, %73, %68
  %86 = load %struct.student*, %struct.student** %3, align 8
  %87 = getelementptr inbounds %struct.student, %struct.student* %86, i32 0, i32 1
  %88 = load i32, i32* %87, align 4
  %89 = icmp sgt i32 %88, 90
  br i1 %89, label %90, label %97

90:                                               ; preds = %85
  %91 = load %struct.student*, %struct.student** %3, align 8
  %92 = getelementptr inbounds %struct.student, %struct.student* %91, i32 0, i32 6
  %93 = load i32, i32* %92, align 4
  %94 = add nsw i32 %93, 2000
  %95 = load %struct.student*, %struct.student** %3, align 8
  %96 = getelementptr inbounds %struct.student, %struct.student* %95, i32 0, i32 6
  store i32 %94, i32* %96, align 4
  br label %97

97:                                               ; preds = %90, %85
  %98 = load %struct.student*, %struct.student** %3, align 8
  %99 = getelementptr inbounds %struct.student, %struct.student* %98, i32 0, i32 1
  %100 = load i32, i32* %99, align 4
  %101 = icmp sgt i32 %100, 85
  br i1 %101, label %102, label %115

102:                                              ; preds = %97
  %103 = load %struct.student*, %struct.student** %3, align 8
  %104 = getelementptr inbounds %struct.student, %struct.student* %103, i32 0, i32 4
  %105 = load i8, i8* %104, align 1
  %106 = sext i8 %105 to i32
  %107 = icmp eq i32 %106, 89
  br i1 %107, label %108, label %115

108:                                              ; preds = %102
  %109 = load %struct.student*, %struct.student** %3, align 8
  %110 = getelementptr inbounds %struct.student, %struct.student* %109, i32 0, i32 6
  %111 = load i32, i32* %110, align 4
  %112 = add nsw i32 %111, 1000
  %113 = load %struct.student*, %struct.student** %3, align 8
  %114 = getelementptr inbounds %struct.student, %struct.student* %113, i32 0, i32 6
  store i32 %112, i32* %114, align 4
  br label %115

115:                                              ; preds = %108, %102, %97
  %116 = load %struct.student*, %struct.student** %3, align 8
  %117 = getelementptr inbounds %struct.student, %struct.student* %116, i32 0, i32 2
  %118 = load i32, i32* %117, align 8
  %119 = icmp sgt i32 %118, 80
  br i1 %119, label %120, label %133

120:                                              ; preds = %115
  %121 = load %struct.student*, %struct.student** %3, align 8
  %122 = getelementptr inbounds %struct.student, %struct.student* %121, i32 0, i32 3
  %123 = load i8, i8* %122, align 4
  %124 = sext i8 %123 to i32
  %125 = icmp eq i32 %124, 89
  br i1 %125, label %126, label %133

126:                                              ; preds = %120
  %127 = load %struct.student*, %struct.student** %3, align 8
  %128 = getelementptr inbounds %struct.student, %struct.student* %127, i32 0, i32 6
  %129 = load i32, i32* %128, align 4
  %130 = add nsw i32 %129, 850
  %131 = load %struct.student*, %struct.student** %3, align 8
  %132 = getelementptr inbounds %struct.student, %struct.student* %131, i32 0, i32 6
  store i32 %130, i32* %132, align 4
  br label %133

133:                                              ; preds = %126, %120, %115
  %134 = load i32, i32* @sum, align 4
  %135 = load %struct.student*, %struct.student** %3, align 8
  %136 = getelementptr inbounds %struct.student, %struct.student* %135, i32 0, i32 6
  %137 = load i32, i32* %136, align 4
  %138 = add nsw i32 %134, %137
  store i32 %138, i32* @sum, align 4
  %139 = load i32, i32* %7, align 4
  %140 = load %struct.student*, %struct.student** %3, align 8
  %141 = getelementptr inbounds %struct.student, %struct.student* %140, i32 0, i32 6
  %142 = load i32, i32* %141, align 4
  %143 = icmp slt i32 %139, %142
  br i1 %143, label %144, label %149

144:                                              ; preds = %133
  %145 = load %struct.student*, %struct.student** %3, align 8
  %146 = getelementptr inbounds %struct.student, %struct.student* %145, i32 0, i32 6
  %147 = load i32, i32* %146, align 4
  store i32 %147, i32* %7, align 4
  %148 = load %struct.student*, %struct.student** %3, align 8
  store %struct.student* %148, %struct.student** %2, align 8
  br label %149

149:                                              ; preds = %144, %133
  br label %150

150:                                              ; preds = %149
  %151 = load %struct.student*, %struct.student** %3, align 8
  %152 = getelementptr inbounds %struct.student, %struct.student* %151, i32 0, i32 7
  %153 = load %struct.student*, %struct.student** %152, align 8
  store %struct.student* %153, %struct.student** %3, align 8
  br label %48

154:                                              ; preds = %48
  %155 = load %struct.student*, %struct.student** %2, align 8
  %156 = getelementptr inbounds %struct.student, %struct.student* %155, i32 0, i32 0
  %157 = getelementptr inbounds [20 x i8], [20 x i8]* %156, i64 0, i64 0
  %158 = load %struct.student*, %struct.student** %2, align 8
  %159 = getelementptr inbounds %struct.student, %struct.student* %158, i32 0, i32 6
  %160 = load i32, i32* %159, align 4
  %161 = load i32, i32* @sum, align 4
  %162 = call i32 (i8*, ...) @printf(i8* getelementptr inbounds ([10 x i8], [10 x i8]* @.str.2, i64 0, i64 0), i8* %157, i32 %160, i32 %161)
  ret void
}

declare dso_local i32 @__isoc99_scanf(i8*, ...) #1

; Function Attrs: nounwind
declare dso_local noalias i8* @malloc(i64) #2

declare dso_local i32 @printf(i8*, ...) #1


!llvm.module.flags = !{!0}
!llvm.ident = !{!1}

!0 = !{i32 1, !"wchar_size", i32 4}
!1 = !{!"clang version 10.0.0-4ubuntu1 "}
